target datalayout = "e-m:e-p270:32:32-p271:32:32-p272:64:64-i64:64-i128:128-f80:128-n8:16:32:64-S128"
target triple = "x86_64-pc-linux-gnu"

%struct.mbedtls_mpi = type { i32, i64, ptr }

; Function Attrs: mustprogress uwtable
define hidden i32 @mbedtls_mpi_div_int(ptr noundef %0, ptr noundef %1, ptr noundef %2, i64 noundef %3) #1 {
  %5 = alloca ptr, align 8
  %6 = alloca ptr, align 8
  %7 = alloca ptr, align 8
  %8 = alloca i64, align 8
  %9 = alloca %struct.mbedtls_mpi, align 8
  %10 = alloca [1 x i64], align 8
  store ptr %0, ptr %5, align 8, !tbaa !3
  store ptr %1, ptr %6, align 8, !tbaa !3
  store ptr %2, ptr %7, align 8, !tbaa !3
  store i64 %3, ptr %8, align 8, !tbaa !16
  call void @llvm.lifetime.start.p0(i64 24, ptr %9) #10
  call void @llvm.lifetime.start.p0(i64 8, ptr %10) #10
  br label %11

11:                                               ; preds = %4
  br label %12

12:                                               ; preds = %11
  br label %13

13:                                               ; preds = %12
  %14 = load i64, ptr %8, align 8, !tbaa !16
  %15 = icmp slt i64 %14, 0
  br i1 %15, label %16, label %19

16:                                               ; preds = %13
  %17 = load i64, ptr %8, align 8, !tbaa !16
  %18 = sub nsw i64 0, %17
  br label %21

19:                                               ; preds = %13
  %20 = load i64, ptr %8, align 8, !tbaa !16
  br label %21

21:                                               ; preds = %19, %16
  %22 = phi i64 [ %18, %16 ], [ %20, %19 ]
  %23 = getelementptr inbounds [1 x i64], ptr %10, i64 0, i64 0
  store i64 %22, ptr %23, align 8, !tbaa !16
  %24 = load i64, ptr %8, align 8, !tbaa !16
  %25 = icmp slt i64 %24, 0
  %26 = select i1 %25, i32 -1, i32 1
  %27 = getelementptr inbounds nuw %struct.mbedtls_mpi, ptr %9, i32 0, i32 0
  store i32 %26, ptr %27, align 8, !tbaa !8
  %28 = getelementptr inbounds nuw %struct.mbedtls_mpi, ptr %9, i32 0, i32 1
  store i64 1, ptr %28, align 8, !tbaa !13
  %29 = getelementptr inbounds [1 x i64], ptr %10, i64 0, i64 0
  %30 = getelementptr inbounds nuw %struct.mbedtls_mpi, ptr %9, i32 0, i32 2
  store ptr %29, ptr %30, align 8, !tbaa !14
  %31 = load ptr, ptr %5, align 8, !tbaa !3
  %32 = load ptr, ptr %6, align 8, !tbaa !3
  %33 = load ptr, ptr %7, align 8, !tbaa !3
  %34 = call i32 @mbedtls_mpi_div_mpi(ptr noundef %31, ptr noundef %32, ptr noundef %33, ptr noundef %9)
  call void @llvm.lifetime.end.p0(i64 8, ptr %10) #10
  call void @llvm.lifetime.end.p0(i64 24, ptr %9) #10
  ret i32 %34
}