; Function Attrs: mustprogress uwtable
define hidden range(i32 -16, 1) i32 @mbedtls_mpi_div_int(ptr noundef captures(address) %0, ptr noundef captures(address) %1, ptr noundef captures(address) %2, i64 noundef %3) local_unnamed_addr #1 {
  %5 = alloca %struct.mbedtls_mpi, align 8
  %6 = alloca [1 x i64], align 8
  call void @llvm.lifetime.start.p0(i64 24, ptr nonnull %5) #15
  call void @llvm.lifetime.start.p0(i64 8, ptr nonnull %6) #15
  %7 = icmp slt i64 %3, 0
  %8 = tail call i64 @llvm.abs.i64(i64 %3, i1 true)
  store i64 %8, ptr %6, align 8, !tbaa !13
  %9 = select i1 %7, i32 -1, i32 1
  store i32 %9, ptr %5, align 8, !tbaa !3
  %10 = getelementptr inbounds nuw i8, ptr %5, i64 8
  store i64 1, ptr %10, align 8, !tbaa !12
  %11 = getelementptr inbounds nuw i8, ptr %5, i64 16
  store ptr %6, ptr %11, align 8, !tbaa !11
  %12 = call i32 @mbedtls_mpi_div_mpi(ptr noundef %0, ptr noundef %1, ptr noundef %2, ptr noundef nonnull %5)
  call void @llvm.lifetime.end.p0(i64 8, ptr nonnull %6) #15
  call void @llvm.lifetime.end.p0(i64 24, ptr nonnull %5) #15
  ret i32 %12
}